ccollections
OrderedDict
p1
((lp2
(lp3
S'user'
p4
aS'tester'
p5
aa(lp6
S'password'
p7
aS'tester'
p8
aa(lp9
S'host'
p10
aS'127.0.0.1'
p11
aa(lp12
S'port'
p13
aI3306
aa(lp14
S'autocommit'
p15
aI01
aa(lp16
S'sql_dir'
p17
aS'../sql'
p18
aatRp19
.